target datalayout = "e-m:e-p270:32:32-p271:32:32-p272:64:64-i64:64-i128:128-f80:128-n8:16:32:64-S128"
target triple = "x86_64-pc-linux-gnu"

%struct.dbd_cluster_tres_msg = type { ptr, i64, ptr }

@.str = private unnamed_addr constant [16 x i8] c"slurmdbd_pack.c\00", align 1
@__func__._unpack_cluster_tres_msg = private unnamed_addr constant [25 x i8] c"_unpack_cluster_tres_msg\00", align 1

; Function Attrs: nounwind uwtable
define internal i32 @_unpack_cluster_tres_msg(ptr noundef %0, i16 noundef zeroext %1, ptr noundef %2) #0 {
  %4 = alloca i32, align 4
  %5 = alloca ptr, align 8
  %6 = alloca i16, align 2
  %7 = alloca ptr, align 8
  %8 = alloca ptr, align 8
  %9 = alloca i32, align 4
  %10 = alloca i32, align 4
  %11 = alloca i32, align 4
  store ptr %0, ptr %5, align 8
  store i16 %1, ptr %6, align 2
  store ptr %2, ptr %7, align 8
  call void @llvm.lifetime.start.p0(i64 8, ptr %8) #5
  %12 = call ptr @slurm_xcalloc(i64 noundef 1, i64 noundef 24, i1 noundef zeroext true, i1 noundef zeroext false, ptr noundef @.str, i32 noundef 142, ptr noundef @__func__._unpack_cluster_tres_msg)
  store ptr %12, ptr %8, align 8
  %13 = load ptr, ptr %8, align 8
  %14 = load ptr, ptr %5, align 8
  store ptr %13, ptr %14, align 8
  %15 = load i16, ptr %6, align 2
  %16 = zext i16 %15 to i32
  %17 = icmp sge i32 %16, 10240
  br i1 %17, label %18, label %55

18:                                               ; preds = %3
  br label %19

19:                                               ; preds = %18
  call void @llvm.lifetime.start.p0(i64 4, ptr %9) #5
  %20 = load ptr, ptr %8, align 8
  %21 = getelementptr inbounds nuw %struct.dbd_cluster_tres_msg, ptr %20, i32 0, i32 0
  %22 = load ptr, ptr %7, align 8
  %23 = call i32 @unpackstr_xmalloc_chooser(ptr noundef %21, ptr noundef %9, ptr noundef %22)
  %24 = icmp ne i32 %23, 0
  br i1 %24, label %25, label %26

25:                                               ; preds = %19
  store i32 4, ptr %10, align 4
  br label %27

26:                                               ; preds = %19
  store i32 0, ptr %10, align 4
  br label %27

27:                                               ; preds = %25, %26
  call void @llvm.lifetime.end.p0(i64 4, ptr %9) #5
  %28 = load i32, ptr %10, align 4
  switch i32 %28, label %59 [
    i32 0, label %29
    i32 4, label %56
  ]

29:                                               ; preds = %27
  br label %30

30:                                               ; preds = %29
  br label %31

31:                                               ; preds = %30
  br label %32

32:                                               ; preds = %31
  %33 = load ptr, ptr %8, align 8
  %34 = getelementptr inbounds nuw %struct.dbd_cluster_tres_msg, ptr %33, i32 0, i32 1
  %35 = load ptr, ptr %7, align 8
  %36 = call i32 @unpack_time(ptr noundef %34, ptr noundef %35)
  %37 = icmp ne i32 %36, 0
  br i1 %37, label %38, label %39

38:                                               ; preds = %32
  br label %56

39:                                               ; preds = %32
  br label %40

40:                                               ; preds = %39
  br label %41

41:                                               ; preds = %40
  br label %42

42:                                               ; preds = %41
  call void @llvm.lifetime.start.p0(i64 4, ptr %11) #5
  %43 = load ptr, ptr %8, align 8
  %44 = getelementptr inbounds nuw %struct.dbd_cluster_tres_msg, ptr %43, i32 0, i32 2
  %45 = load ptr, ptr %7, align 8
  %46 = call i32 @unpackstr_xmalloc_chooser(ptr noundef %44, ptr noundef %11, ptr noundef %45)
  %47 = icmp ne i32 %46, 0
  br i1 %47, label %48, label %49

48:                                               ; preds = %42
  store i32 4, ptr %10, align 4
  br label %50

49:                                               ; preds = %42
  store i32 0, ptr %10, align 4
  br label %50

50:                                               ; preds = %48, %49
  call void @llvm.lifetime.end.p0(i64 4, ptr %11) #5
  %51 = load i32, ptr %10, align 4
  switch i32 %51, label %59 [
    i32 0, label %52
    i32 4, label %56
  ]

52:                                               ; preds = %50
  br label %53

53:                                               ; preds = %52
  br label %54

54:                                               ; preds = %53
  br label %55

55:                                               ; preds = %54, %3
  store i32 0, ptr %4, align 4
  store i32 1, ptr %10, align 4
  br label %59

56:                                               ; preds = %50, %27, %38
  %57 = load ptr, ptr %8, align 8
  call void @slurmdbd_free_cluster_tres_msg(ptr noundef %57)
  %58 = load ptr, ptr %5, align 8
  store ptr null, ptr %58, align 8
  store i32 -1, ptr %4, align 4
  store i32 1, ptr %10, align 4
  br label %59

59:                                               ; preds = %56, %55, %50, %27
  call void @llvm.lifetime.end.p0(i64 8, ptr %8) #5
  %60 = load i32, ptr %4, align 4
  ret i32 %60
}