; Function Attrs: nounwind uwtable
define internal fastcc range(i32 -1, 1) i32 @_unpack_cluster_tres_msg(ptr noundef writeonly captures(none) initializes((0, 8)) %0, i16 noundef zeroext %1, ptr noundef %2) unnamed_addr #0 {
  %4 = alloca i32, align 4
  %5 = alloca i32, align 4
  %6 = tail call ptr @slurm_xcalloc(i64 noundef 1, i64 noundef 24, i1 noundef zeroext true, i1 noundef zeroext false, ptr noundef nonnull @.str, i32 noundef 142, ptr noundef nonnull @__func__._unpack_cluster_tres_msg) #5
  store ptr %6, ptr %0, align 8
  %7 = icmp ugt i16 %1, 10239
  br i1 %7, label %8, label %17

8:                                                ; preds = %3
  call void @llvm.lifetime.start.p0(i64 4, ptr nonnull %4) #5
  %9 = call i32 @unpackstr_xmalloc_chooser(ptr noundef %6, ptr noundef nonnull %4, ptr noundef %2) #5
  %.not = icmp eq i32 %9, 0
  call void @llvm.lifetime.end.p0(i64 4, ptr nonnull %4) #5
  br i1 %.not, label %10, label %16

10:                                               ; preds = %8
  %11 = getelementptr inbounds nuw i8, ptr %6, i64 8
  %12 = call i32 @unpack_time(ptr noundef nonnull %11, ptr noundef %2) #5
  %.not14 = icmp eq i32 %12, 0
  br i1 %.not14, label %13, label %16

13:                                               ; preds = %10
  call void @llvm.lifetime.start.p0(i64 4, ptr nonnull %5) #5
  %14 = getelementptr inbounds nuw i8, ptr %6, i64 16
  %15 = call i32 @unpackstr_xmalloc_chooser(ptr noundef nonnull %14, ptr noundef nonnull %5, ptr noundef %2) #5
  %.not15 = icmp eq i32 %15, 0
  call void @llvm.lifetime.end.p0(i64 4, ptr nonnull %5) #5
  br i1 %.not15, label %17, label %16

16:                                               ; preds = %13, %8, %10
  call void @slurmdbd_free_cluster_tres_msg(ptr noundef %6) #5
  store ptr null, ptr %0, align 8
  br label %17

17:                                               ; preds = %13, %3, %16
  %.013 = phi i32 [ -1, %16 ], [ 0, %13 ], [ 0, %3 ]
  ret i32 %.013
}